; ModuleID = '35/2413.c'
source_filename = "35/2413.c"
target datalayout = "e-m:e-p270:32:32-p271:32:32-p272:64:64-i64:64-f80:128-n8:16:32:64-S128"
target triple = "x86_64-pc-linux-gnu"

@.str = private unnamed_addr constant [6 x i8] c"%d,%d\00", align 1
@.str.1 = private unnamed_addr constant [3 x i8] c"%d\00", align 1
@.str.2 = private unnamed_addr constant [6 x i8] c"%d+%d\00", align 1
@.str.3 = private unnamed_addr constant [3 x i8] c"No\00", align 1

; Function Attrs: noinline nounwind uwtable
define dso_local i32 @main() #0 {
  %1 = alloca i32, align 4
  %2 = alloca [8 x [8 x i32]], align 16
  %3 = alloca i32, align 4
  %4 = alloca i32, align 4
  %5 = alloca i32, align 4
  %6 = alloca i32, align 4
  %7 = alloca [8 x i32], align 16
  %8 = alloca [8 x i32], align 16
  %9 = alloca i32, align 4
  %10 = alloca i32, align 4
  %11 = alloca i32, align 4
  %12 = alloca i32, align 4
  store i32 0, i32* %1, align 4
  %13 = bitcast [8 x i32]* %7 to i8*
  call void @llvm.memset.p0i8.i64(i8* align 16 %13, i8 0, i64 32, i1 false)
  %14 = bitcast [8 x i32]* %8 to i8*
  call void @llvm.memset.p0i8.i64(i8* align 16 %14, i8 0, i64 32, i1 false)
  %15 = call i32 (i8*, ...) @__isoc99_scanf(i8* getelementptr inbounds ([6 x i8], [6 x i8]* @.str, i64 0, i64 0), i32* %5, i32* %6)
  store i32 0, i32* %3, align 4
  br label %16

16:                                               ; preds = %59, %0
  %17 = load i32, i32* %3, align 4
  %18 = load i32, i32* %5, align 4
  %19 = icmp slt i32 %17, %18
  br i1 %19, label %20, label %62

20:                                               ; preds = %16
  store i32 0, i32* %9, align 4
  store i32 0, i32* %4, align 4
  br label %21

21:                                               ; preds = %55, %20
  %22 = load i32, i32* %4, align 4
  %23 = load i32, i32* %6, align 4
  %24 = icmp slt i32 %22, %23
  br i1 %24, label %25, label %58

25:                                               ; preds = %21
  %26 = load i32, i32* %3, align 4
  %27 = sext i32 %26 to i64
  %28 = getelementptr inbounds [8 x [8 x i32]], [8 x [8 x i32]]* %2, i64 0, i64 %27
  %29 = load i32, i32* %4, align 4
  %30 = sext i32 %29 to i64
  %31 = getelementptr inbounds [8 x i32], [8 x i32]* %28, i64 0, i64 %30
  %32 = call i32 (i8*, ...) @__isoc99_scanf(i8* getelementptr inbounds ([3 x i8], [3 x i8]* @.str.1, i64 0, i64 0), i32* %31)
  %33 = load i32, i32* %3, align 4
  %34 = sext i32 %33 to i64
  %35 = getelementptr inbounds [8 x [8 x i32]], [8 x [8 x i32]]* %2, i64 0, i64 %34
  %36 = load i32, i32* %4, align 4
  %37 = sext i32 %36 to i64
  %38 = getelementptr inbounds [8 x i32], [8 x i32]* %35, i64 0, i64 %37
  %39 = load i32, i32* %38, align 4
  %40 = load i32, i32* %9, align 4
  %41 = icmp sgt i32 %39, %40
  br i1 %41, label %42, label %54

42:                                               ; preds = %25
  %43 = load i32, i32* %4, align 4
  %44 = load i32, i32* %3, align 4
  %45 = sext i32 %44 to i64
  %46 = getelementptr inbounds [8 x i32], [8 x i32]* %7, i64 0, i64 %45
  store i32 %43, i32* %46, align 4
  %47 = load i32, i32* %3, align 4
  %48 = sext i32 %47 to i64
  %49 = getelementptr inbounds [8 x [8 x i32]], [8 x [8 x i32]]* %2, i64 0, i64 %48
  %50 = load i32, i32* %4, align 4
  %51 = sext i32 %50 to i64
  %52 = getelementptr inbounds [8 x i32], [8 x i32]* %49, i64 0, i64 %51
  %53 = load i32, i32* %52, align 4
  store i32 %53, i32* %9, align 4
  br label %54

54:                                               ; preds = %42, %25
  br label %55

55:                                               ; preds = %54
  %56 = load i32, i32* %4, align 4
  %57 = add nsw i32 %56, 1
  store i32 %57, i32* %4, align 4
  br label %21

58:                                               ; preds = %21
  br label %59

59:                                               ; preds = %58
  %60 = load i32, i32* %3, align 4
  %61 = add nsw i32 %60, 1
  store i32 %61, i32* %3, align 4
  br label %16

62:                                               ; preds = %16
  store i32 0, i32* %3, align 4
  br label %63

63:                                               ; preds = %99, %62
  %64 = load i32, i32* %3, align 4
  %65 = load i32, i32* %6, align 4
  %66 = icmp slt i32 %64, %65
  br i1 %66, label %67, label %102

67:                                               ; preds = %63
  store i32 100, i32* %10, align 4
  store i32 0, i32* %4, align 4
  br label %68

68:                                               ; preds = %95, %67
  %69 = load i32, i32* %4, align 4
  %70 = load i32, i32* %5, align 4
  %71 = icmp slt i32 %69, %70
  br i1 %71, label %72, label %98

72:                                               ; preds = %68
  %73 = load i32, i32* %4, align 4
  %74 = sext i32 %73 to i64
  %75 = getelementptr inbounds [8 x [8 x i32]], [8 x [8 x i32]]* %2, i64 0, i64 %74
  %76 = load i32, i32* %3, align 4
  %77 = sext i32 %76 to i64
  %78 = getelementptr inbounds [8 x i32], [8 x i32]* %75, i64 0, i64 %77
  %79 = load i32, i32* %78, align 4
  %80 = load i32, i32* %10, align 4
  %81 = icmp slt i32 %79, %80
  br i1 %81, label %82, label %94

82:                                               ; preds = %72
  %83 = load i32, i32* %4, align 4
  %84 = load i32, i32* %3, align 4
  %85 = sext i32 %84 to i64
  %86 = getelementptr inbounds [8 x i32], [8 x i32]* %8, i64 0, i64 %85
  store i32 %83, i32* %86, align 4
  %87 = load i32, i32* %4, align 4
  %88 = sext i32 %87 to i64
  %89 = getelementptr inbounds [8 x [8 x i32]], [8 x [8 x i32]]* %2, i64 0, i64 %88
  %90 = load i32, i32* %3, align 4
  %91 = sext i32 %90 to i64
  %92 = getelementptr inbounds [8 x i32], [8 x i32]* %89, i64 0, i64 %91
  %93 = load i32, i32* %92, align 4
  store i32 %93, i32* %10, align 4
  br label %94

94:                                               ; preds = %82, %72
  br label %95

95:                                               ; preds = %94
  %96 = load i32, i32* %4, align 4
  %97 = add nsw i32 %96, 1
  store i32 %97, i32* %4, align 4
  br label %68

98:                                               ; preds = %68
  br label %99

99:                                               ; preds = %98
  %100 = load i32, i32* %3, align 4
  %101 = add nsw i32 %100, 1
  store i32 %101, i32* %3, align 4
  br label %63

102:                                              ; preds = %63
  store i32 0, i32* %11, align 4
  store i32 0, i32* %3, align 4
  br label %103

103:                                              ; preds = %128, %102
  %104 = load i32, i32* %3, align 4
  %105 = load i32, i32* %5, align 4
  %106 = icmp slt i32 %104, %105
  br i1 %106, label %107, label %131

107:                                              ; preds = %103
  %108 = load i32, i32* %3, align 4
  %109 = sext i32 %108 to i64
  %110 = getelementptr inbounds [8 x i32], [8 x i32]* %7, i64 0, i64 %109
  %111 = load i32, i32* %110, align 4
  store i32 %111, i32* %12, align 4
  %112 = load i32, i32* %12, align 4
  %113 = sext i32 %112 to i64
  %114 = getelementptr inbounds [8 x i32], [8 x i32]* %8, i64 0, i64 %113
  %115 = load i32, i32* %114, align 4
  %116 = load i32, i32* %3, align 4
  %117 = icmp eq i32 %115, %116
  br i1 %117, label %118, label %127

118:                                              ; preds = %107
  %119 = load i32, i32* %11, align 4
  %120 = add nsw i32 %119, 1
  store i32 %120, i32* %11, align 4
  %121 = load i32, i32* %3, align 4
  %122 = load i32, i32* %3, align 4
  %123 = sext i32 %122 to i64
  %124 = getelementptr inbounds [8 x i32], [8 x i32]* %7, i64 0, i64 %123
  %125 = load i32, i32* %124, align 4
  %126 = call i32 (i8*, ...) @printf(i8* getelementptr inbounds ([6 x i8], [6 x i8]* @.str.2, i64 0, i64 0), i32 %121, i32 %125)
  br label %127

127:                                              ; preds = %118, %107
  br label %128

128:                                              ; preds = %127
  %129 = load i32, i32* %3, align 4
  %130 = add nsw i32 %129, 1
  store i32 %130, i32* %3, align 4
  br label %103

131:                                              ; preds = %103
  %132 = load i32, i32* %11, align 4
  %133 = icmp eq i32 %132, 0
  br i1 %133, label %134, label %136

134:                                              ; preds = %131
  %135 = call i32 (i8*, ...) @printf(i8* getelementptr inbounds ([3 x i8], [3 x i8]* @.str.3, i64 0, i64 0))
  br label %136

136:                                              ; preds = %134, %131
  ret i32 0
}

; Function Attrs: argmemonly nounwind willreturn
declare void @llvm.memset.p0i8.i64(i8* nocapture writeonly, i8, i64, i1 immarg) #1

declare dso_local i32 @__isoc99_scanf(i8*, ...) #2

declare dso_local i32 @printf(i8*, ...) #2


!llvm.module.flags = !{!0}
!llvm.ident = !{!1}

!0 = !{i32 1, !"wchar_size", i32 4}
!1 = !{!"clang version 10.0.0-4ubuntu1 "}
